target datalayout = "e-m:e-p270:32:32-p271:32:32-p272:64:64-i64:64-i128:128-f80:128-n8:16:32:64-S128"
target triple = "x86_64-pc-linux-gnu"

%struct.H5FL_reg_head_t = type { i8, i32, i32, ptr, i64, ptr }
%struct.H5S_select_class_t = type { i32, ptr, ptr, ptr, ptr, ptr, ptr, ptr, ptr, ptr, ptr, ptr, ptr, ptr, ptr, ptr, ptr, ptr, ptr, ptr, ptr }
%struct.H5S_t = type { %struct.H5S_extent_t, %struct.H5S_select_t }
%struct.H5S_extent_t = type { %struct.H5O_shared_t, i32, i32, i64, i32, ptr, ptr }
%struct.H5O_shared_t = type { i32, ptr, i32, %union.anon }
%union.anon = type { %struct.H5O_mesg_loc_t }
%struct.H5O_mesg_loc_t = type { i32, i64 }
%struct.H5S_select_t = type { ptr, i8, [32 x i64], i64, %union.anon.0 }
%union.anon.0 = type { ptr }
%struct.H5S_sel_iter_t = type { ptr, i32, [32 x i64], [32 x i64], i64, i64, i32, %union.anon.1 }
%union.anon.1 = type { %struct.H5S_hyper_iter_t }
%struct.H5S_hyper_iter_t = type { [32 x i64], [32 x i64], i32, i8, [32 x %struct.H5S_hyper_dim_t], [32 x i64], [32 x i64], [32 x i8], [32 x i64], ptr, [32 x ptr] }
%struct.H5S_hyper_dim_t = type { i64, i64, i64, i64 }
%struct.H5S_sel_iter_class_t = type { i32, ptr, ptr, ptr, ptr, ptr, ptr, ptr, ptr }

@H5_H5S_sel_iter_t_reg_free_list = global %struct.H5FL_reg_head_t { i8 0, i32 0, i32 0, ptr @.str, i64 3160, ptr null }, align 8
@.str.1 = private unnamed_addr constant [103 x i8] c"generated/home/dtcxzyw/WorkSpace/Projects/compilers/llvm-opt-benchmark/bench/hdf5/hdf5/src/H5Sselect.c\00", align 1
@H5E_CANTINIT_g = external global i64, align 8
@H5E_DATASPACE_g = external global i64, align 8
@H5E_CANTALLOC_g = external global i64, align 8
@.str.26 = private unnamed_addr constant [34 x i8] c"sequence length generation failed\00", align 1
@H5E_CANTNEXT_g = external global i64, align 8
@H5E_DATASET_g = external global i64, align 8
@__func__.H5S_select_contig_block = private unnamed_addr constant [24 x i8] c"H5S_select_contig_block\00", align 1
@.str.93 = private unnamed_addr constant [24 x i8] c"can't allocate iterator\00", align 1
@.str.94 = private unnamed_addr constant [50 x i8] c"unable to initialize memory selection information\00", align 1
@H5E_CANTFREE_g = external global i64, align 8
@.str.95 = private unnamed_addr constant [33 x i8] c"Can't release selection iterator\00", align 1

; Function Attrs: nounwind uwtable
define i32 @H5S_select_iter_init(ptr noundef %0, ptr noundef %1, i64 noundef %2, i32 noundef %3) #0 {
  %5 = alloca ptr, align 8
  %6 = alloca ptr, align 8
  %7 = alloca i64, align 8
  %8 = alloca i32, align 4
  %9 = alloca i32, align 4
  store ptr %0, ptr %5, align 8
  store ptr %1, ptr %6, align 8
  store i64 %2, ptr %7, align 8
  store i32 %3, ptr %8, align 4
  store i32 -1, ptr %9, align 4
  %10 = load ptr, ptr %6, align 8
  %11 = getelementptr inbounds %struct.H5S_t, ptr %10, i32 0, i32 0
  %12 = getelementptr inbounds %struct.H5S_extent_t, ptr %11, i32 0, i32 4
  %13 = load i32, ptr %12, align 8
  %14 = load ptr, ptr %5, align 8
  %15 = getelementptr inbounds %struct.H5S_sel_iter_t, ptr %14, i32 0, i32 1
  store i32 %13, ptr %15, align 8
  %16 = load ptr, ptr %5, align 8
  %17 = getelementptr inbounds %struct.H5S_sel_iter_t, ptr %16, i32 0, i32 1
  %18 = load i32, ptr %17, align 8
  %19 = icmp ugt i32 %18, 0
  br i1 %19, label %20, label %47

20:                                               ; preds = %4
  %21 = load ptr, ptr %5, align 8
  %22 = getelementptr inbounds %struct.H5S_sel_iter_t, ptr %21, i32 0, i32 2
  %23 = getelementptr inbounds [32 x i64], ptr %22, i64 0, i64 0
  %24 = load ptr, ptr %6, align 8
  %25 = getelementptr inbounds %struct.H5S_t, ptr %24, i32 0, i32 0
  %26 = getelementptr inbounds %struct.H5S_extent_t, ptr %25, i32 0, i32 5
  %27 = load ptr, ptr %26, align 8
  %28 = load ptr, ptr %6, align 8
  %29 = getelementptr inbounds %struct.H5S_t, ptr %28, i32 0, i32 0
  %30 = getelementptr inbounds %struct.H5S_extent_t, ptr %29, i32 0, i32 4
  %31 = load i32, ptr %30, align 8
  %32 = zext i32 %31 to i64
  %33 = mul i64 8, %32
  call void @llvm.memcpy.p0.p0.i64(ptr align 8 %23, ptr align 8 %27, i64 %33, i1 false)
  %34 = load ptr, ptr %5, align 8
  %35 = getelementptr inbounds %struct.H5S_sel_iter_t, ptr %34, i32 0, i32 3
  %36 = getelementptr inbounds [32 x i64], ptr %35, i64 0, i64 0
  %37 = load ptr, ptr %6, align 8
  %38 = getelementptr inbounds %struct.H5S_t, ptr %37, i32 0, i32 1
  %39 = getelementptr inbounds %struct.H5S_select_t, ptr %38, i32 0, i32 2
  %40 = getelementptr inbounds [32 x i64], ptr %39, i64 0, i64 0
  %41 = load ptr, ptr %6, align 8
  %42 = getelementptr inbounds %struct.H5S_t, ptr %41, i32 0, i32 0
  %43 = getelementptr inbounds %struct.H5S_extent_t, ptr %42, i32 0, i32 4
  %44 = load i32, ptr %43, align 8
  %45 = zext i32 %44 to i64
  %46 = mul i64 8, %45
  call void @llvm.memcpy.p0.p0.i64(ptr align 8 %36, ptr align 8 %40, i64 %46, i1 false)
  br label %47

47:                                               ; preds = %20, %4
  %48 = load i64, ptr %7, align 8
  %49 = load ptr, ptr %5, align 8
  %50 = getelementptr inbounds %struct.H5S_sel_iter_t, ptr %49, i32 0, i32 5
  store i64 %48, ptr %50, align 8
  %51 = load ptr, ptr %6, align 8
  %52 = getelementptr inbounds %struct.H5S_t, ptr %51, i32 0, i32 1
  %53 = getelementptr inbounds %struct.H5S_select_t, ptr %52, i32 0, i32 3
  %54 = load i64, ptr %53, align 8
  %55 = load ptr, ptr %5, align 8
  %56 = getelementptr inbounds %struct.H5S_sel_iter_t, ptr %55, i32 0, i32 4
  store i64 %54, ptr %56, align 8
  %57 = load i32, ptr %8, align 4
  %58 = load ptr, ptr %5, align 8
  %59 = getelementptr inbounds %struct.H5S_sel_iter_t, ptr %58, i32 0, i32 6
  store i32 %57, ptr %59, align 8
  %60 = load ptr, ptr %6, align 8
  %61 = getelementptr inbounds %struct.H5S_t, ptr %60, i32 0, i32 1
  %62 = getelementptr inbounds %struct.H5S_select_t, ptr %61, i32 0, i32 0
  %63 = load ptr, ptr %62, align 8
  %64 = getelementptr inbounds %struct.H5S_select_class_t, ptr %63, i32 0, i32 20
  %65 = load ptr, ptr %64, align 8
  %66 = load ptr, ptr %6, align 8
  %67 = load ptr, ptr %5, align 8
  %68 = call i32 %65(ptr noundef %66, ptr noundef %67)
  store i32 %68, ptr %9, align 4
  %69 = load i32, ptr %9, align 4
  ret i32 %69
}

; Function Attrs: nounwind uwtable
define i32 @H5S_select_contig_block(ptr noundef %0, ptr noundef %1, ptr noundef %2, ptr noundef %3) #0 {
  %5 = alloca ptr, align 8
  %6 = alloca ptr, align 8
  %7 = alloca ptr, align 8
  %8 = alloca ptr, align 8
  %9 = alloca ptr, align 8
  %10 = alloca i8, align 1
  %11 = alloca i64, align 8
  %12 = alloca i64, align 8
  %13 = alloca i64, align 8
  %14 = alloca i64, align 8
  %15 = alloca i32, align 4
  %16 = alloca i8, align 1
  store ptr %0, ptr %5, align 8
  store ptr %1, ptr %6, align 8
  store ptr %2, ptr %7, align 8
  store ptr %3, ptr %8, align 8
  store ptr null, ptr %9, align 8
  store i8 0, ptr %10, align 1
  store i32 0, ptr %15, align 4
  store i8 0, ptr %16, align 1
  %17 = call noalias ptr @H5FL_reg_malloc(ptr noundef @H5_H5S_sel_iter_t_reg_free_list)
  store ptr %17, ptr %9, align 8
  %18 = icmp eq ptr null, %17
  br i1 %18, label %19, label %34

19:                                               ; preds = %4
  br label %20

20:                                               ; preds = %19
  br label %21

21:                                               ; preds = %20
  br label %22

22:                                               ; preds = %21
  %23 = load i64, ptr @H5E_DATASPACE_g, align 8
  %24 = load i64, ptr @H5E_CANTALLOC_g, align 8
  %25 = call i32 (ptr, ptr, i32, i64, i64, ptr, ...) @H5E_printf_stack(ptr noundef @.str.1, ptr noundef @__func__.H5S_select_contig_block, i32 noundef 2962, i64 noundef %23, i64 noundef %24, ptr noundef @.str.93)
  br label %26

26:                                               ; preds = %22
  store i8 1, ptr %16, align 1
  %27 = load i8, ptr %16, align 1
  %28 = trunc i8 %27 to i1
  %29 = zext i1 %28 to i8
  store i8 %29, ptr %16, align 1
  br label %30

30:                                               ; preds = %26
  br label %31

31:                                               ; preds = %30
  store i32 -1, ptr %15, align 4
  br label %110

32:                                               ; No predecessors!
  br label %33

33:                                               ; preds = %32
  br label %34

34:                                               ; preds = %33, %4
  %35 = load ptr, ptr %9, align 8
  %36 = load ptr, ptr %5, align 8
  %37 = call i32 @H5S_select_iter_init(ptr noundef %35, ptr noundef %36, i64 noundef 1, i32 noundef 0)
  %38 = icmp slt i32 %37, 0
  br i1 %38, label %39, label %54

39:                                               ; preds = %34
  br label %40

40:                                               ; preds = %39
  br label %41

41:                                               ; preds = %40
  br label %42

42:                                               ; preds = %41
  %43 = load i64, ptr @H5E_DATASPACE_g, align 8
  %44 = load i64, ptr @H5E_CANTINIT_g, align 8
  %45 = call i32 (ptr, ptr, i32, i64, i64, ptr, ...) @H5E_printf_stack(ptr noundef @.str.1, ptr noundef @__func__.H5S_select_contig_block, i32 noundef 2964, i64 noundef %43, i64 noundef %44, ptr noundef @.str.94)
  br label %46

46:                                               ; preds = %42
  store i8 1, ptr %16, align 1
  %47 = load i8, ptr %16, align 1
  %48 = trunc i8 %47 to i1
  %49 = zext i1 %48 to i8
  store i8 %49, ptr %16, align 1
  br label %50

50:                                               ; preds = %46
  br label %51

51:                                               ; preds = %50
  store i32 -1, ptr %15, align 4
  br label %110

52:                                               ; No predecessors!
  br label %53

53:                                               ; preds = %52
  br label %54

54:                                               ; preds = %53, %34
  store i8 1, ptr %10, align 1
  %55 = load ptr, ptr %9, align 8
  %56 = getelementptr inbounds %struct.H5S_sel_iter_t, ptr %55, i32 0, i32 0
  %57 = load ptr, ptr %56, align 8
  %58 = getelementptr inbounds %struct.H5S_sel_iter_class_t, ptr %57, i32 0, i32 7
  %59 = load ptr, ptr %58, align 8
  %60 = load ptr, ptr %9, align 8
  %61 = call i32 %59(ptr noundef %60, i64 noundef 1, i64 noundef -1, ptr noundef %11, ptr noundef %12, ptr noundef %13, ptr noundef %14)
  %62 = icmp slt i32 %61, 0
  br i1 %62, label %63, label %78

63:                                               ; preds = %54
  br label %64

64:                                               ; preds = %63
  br label %65

65:                                               ; preds = %64
  br label %66

66:                                               ; preds = %65
  %67 = load i64, ptr @H5E_DATASPACE_g, align 8
  %68 = load i64, ptr @H5E_CANTNEXT_g, align 8
  %69 = call i32 (ptr, ptr, i32, i64, i64, ptr, ...) @H5E_printf_stack(ptr noundef @.str.1, ptr noundef @__func__.H5S_select_contig_block, i32 noundef 2970, i64 noundef %67, i64 noundef %68, ptr noundef @.str.26)
  br label %70

70:                                               ; preds = %66
  store i8 1, ptr %16, align 1
  %71 = load i8, ptr %16, align 1
  %72 = trunc i8 %71 to i1
  %73 = zext i1 %72 to i8
  store i8 %73, ptr %16, align 1
  br label %74

74:                                               ; preds = %70
  br label %75

75:                                               ; preds = %74
  store i32 -1, ptr %15, align 4
  br label %110

76:                                               ; No predecessors!
  br label %77

77:                                               ; preds = %76
  br label %78

78:                                               ; preds = %77, %54
  %79 = load i64, ptr %14, align 8
  %80 = load ptr, ptr %5, align 8
  %81 = getelementptr inbounds %struct.H5S_t, ptr %80, i32 0, i32 1
  %82 = getelementptr inbounds %struct.H5S_select_t, ptr %81, i32 0, i32 3
  %83 = load i64, ptr %82, align 8
  %84 = icmp eq i64 %79, %83
  br i1 %84, label %85, label %103

85:                                               ; preds = %78
  %86 = load ptr, ptr %6, align 8
  %87 = icmp ne ptr %86, null
  br i1 %87, label %88, label %90

88:                                               ; preds = %85
  %89 = load ptr, ptr %6, align 8
  store i8 1, ptr %89, align 1
  br label %90

90:                                               ; preds = %88, %85
  %91 = load ptr, ptr %7, align 8
  %92 = icmp ne ptr %91, null
  br i1 %92, label %93, label %96

93:                                               ; preds = %90
  %94 = load i64, ptr %13, align 8
  %95 = load ptr, ptr %7, align 8
  store i64 %94, ptr %95, align 8
  br label %96

96:                                               ; preds = %93, %90
  %97 = load ptr, ptr %8, align 8
  %98 = icmp ne ptr %97, null
  br i1 %98, label %99, label %102

99:                                               ; preds = %96
  %100 = load i64, ptr %14, align 8
  %101 = load ptr, ptr %8, align 8
  store i64 %100, ptr %101, align 8
  br label %102

102:                                              ; preds = %99, %96
  br label %109

103:                                              ; preds = %78
  %104 = load ptr, ptr %6, align 8
  %105 = icmp ne ptr %104, null
  br i1 %105, label %106, label %108

106:                                              ; preds = %103
  %107 = load ptr, ptr %6, align 8
  store i8 0, ptr %107, align 1
  br label %108

108:                                              ; preds = %106, %103
  br label %109

109:                                              ; preds = %108, %102
  br label %110

110:                                              ; preds = %109, %75, %51, %31
  %111 = load i8, ptr %10, align 1
  %112 = trunc i8 %111 to i1
  br i1 %112, label %113, label %135

113:                                              ; preds = %110
  %114 = load ptr, ptr %9, align 8
  %115 = getelementptr inbounds %struct.H5S_sel_iter_t, ptr %114, i32 0, i32 0
  %116 = load ptr, ptr %115, align 8
  %117 = getelementptr inbounds %struct.H5S_sel_iter_class_t, ptr %116, i32 0, i32 8
  %118 = load ptr, ptr %117, align 8
  %119 = load ptr, ptr %9, align 8
  %120 = call i32 %118(ptr noundef %119)
  %121 = icmp slt i32 %120, 0
  br i1 %121, label %122, label %135

122:                                              ; preds = %113
  br label %123

123:                                              ; preds = %122
  br label %124

124:                                              ; preds = %123
  br label %125

125:                                              ; preds = %124
  %126 = load i64, ptr @H5E_DATASET_g, align 8
  %127 = load i64, ptr @H5E_CANTFREE_g, align 8
  %128 = call i32 (ptr, ptr, i32, i64, i64, ptr, ...) @H5E_printf_stack(ptr noundef @.str.1, ptr noundef @__func__.H5S_select_contig_block, i32 noundef 2987, i64 noundef %126, i64 noundef %127, ptr noundef @.str.95)
  br label %129

129:                                              ; preds = %125
  store i8 1, ptr %16, align 1
  %130 = load i8, ptr %16, align 1
  %131 = trunc i8 %130 to i1
  %132 = zext i1 %131 to i8
  store i8 %132, ptr %16, align 1
  br label %133

133:                                              ; preds = %129
  store i32 -1, ptr %15, align 4
  br label %134

134:                                              ; preds = %133
  br label %135

135:                                              ; preds = %134, %113, %110
  %136 = load ptr, ptr %9, align 8
  %137 = icmp ne ptr %136, null
  br i1 %137, label %138, label %141

138:                                              ; preds = %135
  %139 = load ptr, ptr %9, align 8
  %140 = call ptr @H5FL_reg_free(ptr noundef @H5_H5S_sel_iter_t_reg_free_list, ptr noundef %139)
  store ptr %140, ptr %9, align 8
  br label %141

141:                                              ; preds = %138, %135
  %142 = load i32, ptr %15, align 4
  ret i32 %142
}