; Function Attrs: nounwind uwtable
define range(i32 -1, 1) i32 @H5S_select_contig_block(ptr noundef %0, ptr noundef writeonly %1, ptr noundef writeonly %2, ptr noundef writeonly %3) local_unnamed_addr #3 {
  %5 = alloca i64, align 8
  %6 = alloca i64, align 8
  %7 = alloca i64, align 8
  %8 = alloca i64, align 8
  %9 = tail call noalias ptr @H5FL_reg_malloc(ptr noundef nonnull @H5_H5S_sel_iter_t_reg_free_list) #7
  %10 = icmp eq ptr %9, null
  br i1 %10, label %71, label %11

11:                                               ; preds = %4
  %12 = getelementptr inbounds i8, ptr %0, i64 56
  %13 = load i32, ptr %12, align 8
  %14 = getelementptr inbounds i8, ptr %9, i64 8
  store i32 %13, ptr %14, align 8
  %.not.i = icmp eq i32 %13, 0
  br i1 %.not.i, label %H5S_select_iter_init.exit, label %15

15:                                               ; preds = %11
  %16 = getelementptr inbounds i8, ptr %9, i64 16
  %17 = getelementptr inbounds i8, ptr %0, i64 64
  %18 = load ptr, ptr %17, align 8
  %19 = zext i32 %13 to i64
  %20 = shl nuw nsw i64 %19, 3
  tail call void @llvm.memcpy.p0.p0.i64(ptr nonnull align 8 %16, ptr align 8 %18, i64 %20, i1 false)
  %21 = getelementptr inbounds i8, ptr %9, i64 272
  %22 = getelementptr inbounds i8, ptr %0, i64 96
  tail call void @llvm.memcpy.p0.p0.i64(ptr nonnull align 8 %21, ptr nonnull align 8 %22, i64 %20, i1 false)
  br label %H5S_select_iter_init.exit

H5S_select_iter_init.exit:                        ; preds = %11, %15
  %23 = getelementptr inbounds i8, ptr %9, i64 536
  store i64 1, ptr %23, align 8
  %24 = getelementptr inbounds i8, ptr %0, i64 80
  %25 = getelementptr inbounds i8, ptr %0, i64 352
  %26 = load i64, ptr %25, align 8
  %27 = getelementptr inbounds i8, ptr %9, i64 528
  store i64 %26, ptr %27, align 8
  %28 = getelementptr inbounds i8, ptr %9, i64 544
  store i32 0, ptr %28, align 8
  %29 = load ptr, ptr %24, align 8
  %30 = getelementptr inbounds i8, ptr %29, i64 160
  %31 = load ptr, ptr %30, align 8
  %32 = tail call i32 %31(ptr noundef nonnull %0, ptr noundef nonnull %9) #7
  %33 = icmp slt i32 %32, 0
  br i1 %33, label %34, label %38

34:                                               ; preds = %H5S_select_iter_init.exit
  %35 = load i64, ptr @H5E_DATASPACE_g, align 8
  %36 = load i64, ptr @H5E_CANTINIT_g, align 8
  %37 = tail call i32 (ptr, ptr, i32, i64, i64, ptr, ...) @H5E_printf_stack(ptr noundef nonnull @.str.1, ptr noundef nonnull @__func__.H5S_select_contig_block, i32 noundef 2964, i64 noundef %35, i64 noundef %36, ptr noundef nonnull @.str.94) #7
  br label %75

38:                                               ; preds = %H5S_select_iter_init.exit
  %39 = load ptr, ptr %9, align 8
  %40 = getelementptr inbounds i8, ptr %39, i64 56
  %41 = load ptr, ptr %40, align 8
  %42 = call i32 %41(ptr noundef nonnull %9, i64 noundef 1, i64 noundef -1, ptr noundef nonnull %5, ptr noundef nonnull %6, ptr noundef nonnull %7, ptr noundef nonnull %8) #7
  %43 = icmp slt i32 %42, 0
  br i1 %43, label %44, label %48

44:                                               ; preds = %38
  %45 = load i64, ptr @H5E_DATASPACE_g, align 8
  %46 = load i64, ptr @H5E_CANTNEXT_g, align 8
  %47 = call i32 (ptr, ptr, i32, i64, i64, ptr, ...) @H5E_printf_stack(ptr noundef nonnull @.str.1, ptr noundef nonnull @__func__.H5S_select_contig_block, i32 noundef 2970, i64 noundef %45, i64 noundef %46, ptr noundef nonnull @.str.26) #7
  br label %61

48:                                               ; preds = %38
  %49 = load i64, ptr %8, align 8
  %50 = load i64, ptr %25, align 8
  %51 = icmp eq i64 %49, %50
  %.not29 = icmp eq ptr %1, null
  br i1 %51, label %52, label %59

52:                                               ; preds = %48
  br i1 %.not29, label %54, label %53

53:                                               ; preds = %52
  store i8 1, ptr %1, align 1
  br label %54

54:                                               ; preds = %53, %52
  %.not30 = icmp eq ptr %2, null
  br i1 %.not30, label %57, label %55

55:                                               ; preds = %54
  %56 = load i64, ptr %7, align 8
  store i64 %56, ptr %2, align 8
  br label %57

57:                                               ; preds = %55, %54
  %.not31 = icmp eq ptr %3, null
  br i1 %.not31, label %61, label %58

58:                                               ; preds = %57
  store i64 %49, ptr %3, align 8
  br label %61

59:                                               ; preds = %48
  br i1 %.not29, label %61, label %60

60:                                               ; preds = %59
  store i8 0, ptr %1, align 1
  br label %61

61:                                               ; preds = %44, %58, %57, %60, %59
  %.0.ph = phi i32 [ 0, %59 ], [ 0, %60 ], [ 0, %57 ], [ 0, %58 ], [ -1, %44 ]
  %62 = load ptr, ptr %9, align 8
  %63 = getelementptr inbounds i8, ptr %62, i64 64
  %64 = load ptr, ptr %63, align 8
  %65 = call i32 %64(ptr noundef nonnull %9) #7
  %66 = icmp slt i32 %65, 0
  br i1 %66, label %67, label %75

67:                                               ; preds = %61
  %68 = load i64, ptr @H5E_DATASET_g, align 8
  %69 = load i64, ptr @H5E_CANTFREE_g, align 8
  %70 = call i32 (ptr, ptr, i32, i64, i64, ptr, ...) @H5E_printf_stack(ptr noundef nonnull @.str.1, ptr noundef nonnull @__func__.H5S_select_contig_block, i32 noundef 2987, i64 noundef %68, i64 noundef %69, ptr noundef nonnull @.str.95) #7
  br label %75

71:                                               ; preds = %4
  %72 = load i64, ptr @H5E_DATASPACE_g, align 8
  %73 = load i64, ptr @H5E_CANTALLOC_g, align 8
  %74 = tail call i32 (ptr, ptr, i32, i64, i64, ptr, ...) @H5E_printf_stack(ptr noundef nonnull @.str.1, ptr noundef nonnull @__func__.H5S_select_contig_block, i32 noundef 2962, i64 noundef %72, i64 noundef %73, ptr noundef nonnull @.str.93) #7
  br label %77

75:                                               ; preds = %34, %67, %61
  %.1.ph = phi i32 [ -1, %34 ], [ %.0.ph, %61 ], [ -1, %67 ]
  %76 = call ptr @H5FL_reg_free(ptr noundef nonnull @H5_H5S_sel_iter_t_reg_free_list, ptr noundef nonnull %9) #7
  br label %77

77:                                               ; preds = %71, %75
  %.140 = phi i32 [ %.1.ph, %75 ], [ -1, %71 ]
  ret i32 %.140
}